; Function Attrs: mustprogress uwtable
define hidden void @_ZN3nla18const_iterator_monC2ERK7svectorIbjEPKNS_21factorization_factoryE(ptr nocapture noundef nonnull writeonly align 8 dereferenceable(24) %this, ptr nocapture noundef nonnull readonly align 8 dereferenceable(8) %mask, ptr noundef %f) unnamed_addr #3 align 2 {
entry:
  store ptr null, ptr %this, align 8
  %0 = load ptr, ptr %mask, align 8
  %tobool.not.i.i = icmp eq ptr %0, null
  br i1 %tobool.not.i.i, label %_ZN7svectorIbjEC2ERKS0_.exit, label %_ZNK6vectorIbLb0EjE8capacityEv.exit.i.i.i

_ZNK6vectorIbLb0EjE8capacityEv.exit.i.i.i:        ; preds = %entry
  %arrayidx.i11.i.i.i = getelementptr inbounds i8, ptr %0, i64 -8
  %1 = load <2 x i32>, ptr %arrayidx.i11.i.i.i, align 4
  %2 = extractelement <2 x i32> %1, i64 0
  %conv.i.i.i = zext i32 %2 to i64
  %add.i.i.i = add nuw nsw i64 %conv.i.i.i, 8
  %call3.i.i.i = tail call noalias noundef ptr @_ZN6memory8allocateEm(i64 noundef %add.i.i.i)
  store <2 x i32> %1, ptr %call3.i.i.i, align 4
  %incdec.ptr4.i.i.i = getelementptr inbounds i8, ptr %call3.i.i.i, i64 8
  store ptr %incdec.ptr4.i.i.i, ptr %this, align 8
  %3 = load ptr, ptr %mask, align 8
  %cmp.i.i.i.i.i = icmp eq ptr %3, null
  br i1 %cmp.i.i.i.i.i, label %_ZN7svectorIbjEC2ERKS0_.exit, label %_ZNK6vectorIbLb0EjE3endEv.exit.i.i.i

_ZNK6vectorIbLb0EjE3endEv.exit.i.i.i:             ; preds = %_ZNK6vectorIbLb0EjE8capacityEv.exit.i.i.i
  %arrayidx.i.i.i.i.i = getelementptr inbounds i8, ptr %3, i64 -4
  %4 = load i32, ptr %arrayidx.i.i.i.i.i, align 4
  %tobool.not.i.i.i.i.i.i.i.i.i.i = icmp eq i32 %4, 0
  br i1 %tobool.not.i.i.i.i.i.i.i.i.i.i, label %_ZN7svectorIbjEC2ERKS0_.exit, label %if.then.i.i.i.i.i.i.i.i.i.i

if.then.i.i.i.i.i.i.i.i.i.i:                      ; preds = %_ZNK6vectorIbLb0EjE3endEv.exit.i.i.i
  %5 = zext i32 %4 to i64
  tail call void @llvm.memmove.p0.p0.i64(ptr nonnull align 1 %incdec.ptr4.i.i.i, ptr nonnull align 1 %3, i64 %5, i1 false)
  br label %_ZN7svectorIbjEC2ERKS0_.exit

_ZN7svectorIbjEC2ERKS0_.exit:                     ; preds = %entry, %_ZNK6vectorIbLb0EjE8capacityEv.exit.i.i.i, %_ZNK6vectorIbLb0EjE3endEv.exit.i.i.i, %if.then.i.i.i.i.i.i.i.i.i.i
  %m_ff = getelementptr inbounds i8, ptr %this, i64 8
  store ptr %f, ptr %m_ff, align 8
  %m_full_factorization_returned = getelementptr inbounds i8, ptr %this, i64 16
  store i8 0, ptr %m_full_factorization_returned, align 8
  %m_num_failures = getelementptr inbounds i8, ptr %this, i64 20
  store i32 0, ptr %m_num_failures, align 4
  ret void
}